target datalayout = "e-m:e-p270:32:32-p271:32:32-p272:64:64-i64:64-i128:128-f80:128-n8:16:32:64-S128"
target triple = "x86_64-pc-linux-gnu"

%"class.cv::GStreamingCompiled::Priv" = type { %"class.std::vector", %"class.std::vector", %"class.std::unique_ptr", %"class.std::vector.2", %"class.std::vector.2" }
%"class.std::vector" = type { %"struct.std::_Vector_base" }
%"struct.std::_Vector_base" = type { %"struct.std::_Vector_base<cv::util::variant<cv::util::monostate, cv::GMatDesc, cv::GScalarDesc, cv::GArrayDesc, cv::GOpaqueDesc, cv::GFrameDesc>, std::allocator<cv::util::variant<cv::util::monostate, cv::GMatDesc, cv::GScalarDesc, cv::GArrayDesc, cv::GOpaqueDesc, cv::GFrameDesc>>>::_Vector_impl" }
%"struct.std::_Vector_base<cv::util::variant<cv::util::monostate, cv::GMatDesc, cv::GScalarDesc, cv::GArrayDesc, cv::GOpaqueDesc, cv::GFrameDesc>, std::allocator<cv::util::variant<cv::util::monostate, cv::GMatDesc, cv::GScalarDesc, cv::GArrayDesc, cv::GOpaqueDesc, cv::GFrameDesc>>>::_Vector_impl" = type { %"struct.std::_Vector_base<cv::util::variant<cv::util::monostate, cv::GMatDesc, cv::GScalarDesc, cv::GArrayDesc, cv::GOpaqueDesc, cv::GFrameDesc>, std::allocator<cv::util::variant<cv::util::monostate, cv::GMatDesc, cv::GScalarDesc, cv::GArrayDesc, cv::GOpaqueDesc, cv::GFrameDesc>>>::_Vector_impl_data" }
%"struct.std::_Vector_base<cv::util::variant<cv::util::monostate, cv::GMatDesc, cv::GScalarDesc, cv::GArrayDesc, cv::GOpaqueDesc, cv::GFrameDesc>, std::allocator<cv::util::variant<cv::util::monostate, cv::GMatDesc, cv::GScalarDesc, cv::GArrayDesc, cv::GOpaqueDesc, cv::GFrameDesc>>>::_Vector_impl_data" = type { ptr, ptr, ptr }
%"class.std::unique_ptr" = type { %"struct.std::__uniq_ptr_data" }
%"struct.std::__uniq_ptr_data" = type { %"class.std::__uniq_ptr_impl" }
%"class.std::__uniq_ptr_impl" = type { %"class.std::tuple" }
%"class.std::tuple" = type { %"struct.std::_Tuple_impl" }
%"struct.std::_Tuple_impl" = type { %"struct.std::_Head_base.1" }
%"struct.std::_Head_base.1" = type { ptr }
%"class.std::vector.2" = type { %"struct.std::_Vector_base.3" }
%"struct.std::_Vector_base.3" = type { %"struct.std::_Vector_base<cv::GTypeInfo, std::allocator<cv::GTypeInfo>>::_Vector_impl" }
%"struct.std::_Vector_base<cv::GTypeInfo, std::allocator<cv::GTypeInfo>>::_Vector_impl" = type { %"struct.std::_Vector_base<cv::GTypeInfo, std::allocator<cv::GTypeInfo>>::_Vector_impl_data" }
%"struct.std::_Vector_base<cv::GTypeInfo, std::allocator<cv::GTypeInfo>>::_Vector_impl_data" = type { ptr, ptr, ptr }
%"class.cv::GStreamingCompiled" = type { %"class.std::shared_ptr.44" }
%"class.std::shared_ptr.44" = type { %"class.std::__shared_ptr.45" }
%"class.std::__shared_ptr.45" = type { ptr, %"class.std::__shared_count" }
%"class.std::__shared_count" = type { ptr }
%"class.std::vector.7" = type { %"struct.std::_Vector_base.8" }
%"struct.std::_Vector_base.8" = type { %"struct.std::_Vector_base<cv::GRunArg, std::allocator<cv::GRunArg>>::_Vector_impl" }
%"struct.std::_Vector_base<cv::GRunArg, std::allocator<cv::GRunArg>>::_Vector_impl" = type { %"struct.std::_Vector_base<cv::GRunArg, std::allocator<cv::GRunArg>>::_Vector_impl_data" }
%"struct.std::_Vector_base<cv::GRunArg, std::allocator<cv::GRunArg>>::_Vector_impl_data" = type { ptr, ptr, ptr }
%"struct.cv::detail::ExtractArgsCallback" = type { %"class.std::function" }
%"class.std::function" = type { %"class.std::_Function_base", ptr }
%"class.std::_Function_base" = type { %"union.std::_Any_data", ptr }
%"union.std::_Any_data" = type { %"union.std::_Nocopy_types" }
%"union.std::_Nocopy_types" = type { { i64, i64 } }

; Function Attrs: mustprogress nounwind uwtable
define linkonce_odr hidden noundef zeroext i1 @_ZNKSt14_Function_base8_M_emptyEv(ptr noundef nonnull align 8 dereferenceable(24) %0) #5 comdat align 2 {
  %2 = alloca ptr, align 8
  store ptr %0, ptr %2, align 8, !tbaa !107
  %3 = load ptr, ptr %2, align 8
  %4 = getelementptr inbounds nuw %"class.std::_Function_base", ptr %3, i32 0, i32 1
  %5 = load ptr, ptr %4, align 8, !tbaa !109
  %6 = icmp ne ptr %5, null
  %7 = xor i1 %6, true
  ret i1 %7
}

; Function Attrs: mustprogress nounwind uwtable
define linkonce_odr hidden noundef ptr @_ZNKSt12__shared_ptrIN2cv18GStreamingCompiled4PrivELN9__gnu_cxx12_Lock_policyE2EE3getEv(ptr noundef nonnull align 8 dereferenceable(16) %0) #5 comdat align 2 {
  %2 = alloca ptr, align 8
  store ptr %0, ptr %2, align 8, !tbaa !302
  %3 = load ptr, ptr %2, align 8
  %4 = getelementptr inbounds nuw %"class.std::__shared_ptr.45", ptr %3, i32 0, i32 0
  %5 = load ptr, ptr %4, align 8, !tbaa !304
  ret ptr %5
}

; Function Attrs: mustprogress uwtable
define linkonce_odr hidden void @_ZNKSt8functionIFSt6vectorIN2cv7GRunArgESaIS2_EERKS0_INS1_9GTypeInfoESaIS5_EEEEclES9_(ptr dead_on_unwind noalias writable sret(%"class.std::vector.7") align 8 %0, ptr noundef nonnull align 8 dereferenceable(32) %1, ptr noundef nonnull align 8 dereferenceable(24) %2) #4 comdat align 2 {
  %4 = alloca ptr, align 8
  %5 = alloca ptr, align 8
  %6 = alloca ptr, align 8
  store ptr %0, ptr %4, align 8
  store ptr %1, ptr %5, align 8, !tbaa !102
  store ptr %2, ptr %6, align 8, !tbaa !44
  %7 = load ptr, ptr %5, align 8
  %8 = call noundef zeroext i1 @_ZNKSt14_Function_base8_M_emptyEv(ptr noundef nonnull align 8 dereferenceable(24) %7)
  br i1 %8, label %9, label %10

9:                                                ; preds = %3
  call void @_ZSt25__throw_bad_function_callv() #21
  unreachable

10:                                               ; preds = %3
  %11 = getelementptr inbounds nuw %"class.std::function", ptr %7, i32 0, i32 1
  %12 = load ptr, ptr %11, align 8, !tbaa !104
  %13 = getelementptr inbounds nuw %"class.std::_Function_base", ptr %7, i32 0, i32 0
  %14 = load ptr, ptr %6, align 8, !tbaa !44
  call void %12(ptr dead_on_unwind writable sret(%"class.std::vector.7") align 8 %0, ptr noundef nonnull align 8 dereferenceable(16) %13, ptr noundef nonnull align 8 dereferenceable(24) %14)
  ret void
}

; Function Attrs: mustprogress nounwind uwtable
define linkonce_odr hidden noundef ptr @_ZNKSt19__shared_ptr_accessIN2cv18GStreamingCompiled4PrivELN9__gnu_cxx12_Lock_policyE2ELb0ELb0EE6_M_getEv(ptr noundef nonnull align 1 dereferenceable(1) %0) #5 comdat align 2 {
  %2 = alloca ptr, align 8
  store ptr %0, ptr %2, align 8, !tbaa !46
  %3 = load ptr, ptr %2, align 8
  %4 = call noundef ptr @_ZNKSt12__shared_ptrIN2cv18GStreamingCompiled4PrivELN9__gnu_cxx12_Lock_policyE2EE3getEv(ptr noundef nonnull align 8 dereferenceable(16) %3) #3
  ret ptr %4
}

; Function Attrs: mustprogress uwtable
define void @_ZN2cv18GStreamingCompiled9setSourceEOSt6vectorINS_7GRunArgESaIS2_EE(ptr noundef nonnull align 8 dereferenceable(16) %0, ptr noundef nonnull align 8 dereferenceable(24) %1) #4 align 2 {
  %3 = alloca ptr, align 8
  %4 = alloca ptr, align 8
  store ptr %0, ptr %3, align 8, !tbaa !38
  store ptr %1, ptr %4, align 8, !tbaa !20
  %5 = load ptr, ptr %3, align 8
  %6 = getelementptr inbounds nuw %"class.cv::GStreamingCompiled", ptr %5, i32 0, i32 0
  %7 = call noundef ptr @_ZNKSt19__shared_ptr_accessIN2cv18GStreamingCompiled4PrivELN9__gnu_cxx12_Lock_policyE2ELb0ELb0EEptEv(ptr noundef nonnull align 1 dereferenceable(1) %6) #3
  %8 = load ptr, ptr %4, align 8, !tbaa !20
  call void @_ZN2cv18GStreamingCompiled4Priv9setSourceEOSt6vectorINS_7GRunArgESaIS3_EE(ptr noundef nonnull align 8 dereferenceable(104) %7, ptr noundef nonnull align 8 dereferenceable(24) %8)
  ret void
}

; Function Attrs: mustprogress uwtable
define linkonce_odr hidden void @_ZNK2cv6detail19ExtractArgsCallbackclERKSt6vectorINS_9GTypeInfoESaIS3_EE(ptr dead_on_unwind noalias writable sret(%"class.std::vector.7") align 8 %0, ptr noundef nonnull align 8 dereferenceable(32) %1, ptr noundef nonnull align 8 dereferenceable(24) %2) #4 comdat align 2 {
  %4 = alloca ptr, align 8
  %5 = alloca ptr, align 8
  %6 = alloca ptr, align 8
  store ptr %0, ptr %4, align 8
  store ptr %1, ptr %5, align 8, !tbaa !42
  store ptr %2, ptr %6, align 8, !tbaa !44
  %7 = load ptr, ptr %5, align 8
  %8 = getelementptr inbounds nuw %"struct.cv::detail::ExtractArgsCallback", ptr %7, i32 0, i32 0
  %9 = load ptr, ptr %6, align 8, !tbaa !44
  call void @_ZNKSt8functionIFSt6vectorIN2cv7GRunArgESaIS2_EERKS0_INS1_9GTypeInfoESaIS5_EEEEclES9_(ptr dead_on_unwind writable sret(%"class.std::vector.7") align 8 %0, ptr noundef nonnull align 8 dereferenceable(32) %8, ptr noundef nonnull align 8 dereferenceable(24) %9)
  ret void
}

; Function Attrs: mustprogress nounwind uwtable
define linkonce_odr hidden noundef nonnull align 8 dereferenceable(24) ptr @_ZNK2cv18GStreamingCompiled4Priv6inInfoEv(ptr noundef nonnull align 8 dereferenceable(104) %0) #5 comdat align 2 {
  %2 = alloca ptr, align 8
  store ptr %0, ptr %2, align 8, !tbaa !3
  %3 = load ptr, ptr %2, align 8
  %4 = getelementptr inbounds nuw %"class.cv::GStreamingCompiled::Priv", ptr %3, i32 0, i32 4
  ret ptr %4
}

; Function Attrs: mustprogress nounwind uwtable
define linkonce_odr hidden noundef ptr @_ZNKSt19__shared_ptr_accessIN2cv18GStreamingCompiled4PrivELN9__gnu_cxx12_Lock_policyE2ELb0ELb0EEptEv(ptr noundef nonnull align 1 dereferenceable(1) %0) #5 comdat align 2 {
  %2 = alloca ptr, align 8
  store ptr %0, ptr %2, align 8, !tbaa !46
  %3 = load ptr, ptr %2, align 8
  %4 = call noundef ptr @_ZNKSt19__shared_ptr_accessIN2cv18GStreamingCompiled4PrivELN9__gnu_cxx12_Lock_policyE2ELb0ELb0EE6_M_getEv(ptr noundef nonnull align 1 dereferenceable(1) %3) #3
  ret ptr %4
}

; Function Attrs: mustprogress uwtable
define void @_ZN2cv18GStreamingCompiled9setSourceERKNS_6detail19ExtractArgsCallbackE(ptr noundef nonnull align 8 dereferenceable(16) %0, ptr noundef nonnull align 8 dereferenceable(32) %1) #4 align 2 personality ptr @__gxx_personality_v0 {
  %3 = alloca ptr, align 8
  %4 = alloca ptr, align 8
  %5 = alloca %"class.std::vector.7", align 8
  %6 = alloca ptr, align 8
  %7 = alloca i32, align 4
  store ptr %0, ptr %3, align 8, !tbaa !38
  store ptr %1, ptr %4, align 8, !tbaa !42
  %8 = load ptr, ptr %3, align 8
  call void @llvm.lifetime.start.p0(i64 24, ptr %5) #3
  %9 = load ptr, ptr %4, align 8, !tbaa !42
  %10 = getelementptr inbounds nuw %"class.cv::GStreamingCompiled", ptr %8, i32 0, i32 0
  %11 = call noundef ptr @_ZNKSt19__shared_ptr_accessIN2cv18GStreamingCompiled4PrivELN9__gnu_cxx12_Lock_policyE2ELb0ELb0EEptEv(ptr noundef nonnull align 1 dereferenceable(1) %10) #3
  %12 = call noundef nonnull align 8 dereferenceable(24) ptr @_ZNK2cv18GStreamingCompiled4Priv6inInfoEv(ptr noundef nonnull align 8 dereferenceable(104) %11)
  call void @_ZNK2cv6detail19ExtractArgsCallbackclERKSt6vectorINS_9GTypeInfoESaIS3_EE(ptr dead_on_unwind writable sret(%"class.std::vector.7") align 8 %5, ptr noundef nonnull align 8 dereferenceable(32) %9, ptr noundef nonnull align 8 dereferenceable(24) %12)
  invoke void @_ZN2cv18GStreamingCompiled9setSourceEOSt6vectorINS_7GRunArgESaIS2_EE(ptr noundef nonnull align 8 dereferenceable(16) %8, ptr noundef nonnull align 8 dereferenceable(24) %5)
          to label %13 unwind label %14

13:                                               ; preds = %2
  call void @_ZNSt6vectorIN2cv7GRunArgESaIS1_EED2Ev(ptr noundef nonnull align 8 dereferenceable(24) %5) #3
  call void @llvm.lifetime.end.p0(i64 24, ptr %5) #3
  ret void

14:                                               ; preds = %2
  %15 = landingpad { ptr, i32 }
          cleanup
  %16 = extractvalue { ptr, i32 } %15, 0
  store ptr %16, ptr %6, align 8
  %17 = extractvalue { ptr, i32 } %15, 1
  store i32 %17, ptr %7, align 4
  call void @_ZNSt6vectorIN2cv7GRunArgESaIS1_EED2Ev(ptr noundef nonnull align 8 dereferenceable(24) %5) #3
  call void @llvm.lifetime.end.p0(i64 24, ptr %5) #3
  br label %18

18:                                               ; preds = %14
  %19 = load ptr, ptr %6, align 8
  %20 = load i32, ptr %7, align 4
  %21 = insertvalue { ptr, i32 } poison, ptr %19, 0
  %22 = insertvalue { ptr, i32 } %21, i32 %20, 1
  resume { ptr, i32 } %22
}