; Function Attrs: mustprogress uwtable
define void @_ZN2cv18GStreamingCompiled9setSourceERKNS_6detail19ExtractArgsCallbackE(ptr noundef nonnull readonly align 8 captures(none) dereferenceable(16) %0, ptr noundef nonnull align 8 dereferenceable(32) %1) local_unnamed_addr #3 align 2 personality ptr @__gxx_personality_v0 {
  %3 = alloca %"class.std::vector.7", align 8
  call void @llvm.lifetime.start.p0(i64 24, ptr nonnull %3) #24
  %4 = getelementptr inbounds nuw i8, ptr %1, i64 16
  %5 = load ptr, ptr %4, align 8, !tbaa !43, !noalias !45
  %.not.i.i.i = icmp eq ptr %5, null
  br i1 %.not.i.i.i, label %6, label %_ZNK2cv6detail19ExtractArgsCallbackclERKSt6vectorINS_9GTypeInfoESaIS3_EE.exit

6:                                                ; preds = %2
  tail call void @_ZSt25__throw_bad_function_callv() #27, !noalias !45
  unreachable

_ZNK2cv6detail19ExtractArgsCallbackclERKSt6vectorINS_9GTypeInfoESaIS3_EE.exit: ; preds = %2
  %7 = load ptr, ptr %0, align 8, !tbaa !31
  %8 = getelementptr inbounds nuw i8, ptr %7, i64 80
  %9 = getelementptr inbounds nuw i8, ptr %1, i64 24
  %10 = load ptr, ptr %9, align 8, !tbaa !50, !noalias !45
  call void %10(ptr dead_on_unwind nonnull writable sret(%"class.std::vector.7") align 8 %3, ptr noundef nonnull align 8 dereferenceable(32) %1, ptr noundef nonnull align 8 dereferenceable(24) %8)
  %11 = load ptr, ptr %0, align 8, !tbaa !31
  invoke void @_ZN2cv18GStreamingCompiled4Priv9setSourceEOSt6vectorINS_7GRunArgESaIS3_EE(ptr noundef nonnull align 8 dereferenceable(104) %11, ptr noundef nonnull align 8 dereferenceable(24) %3)
          to label %_ZN2cv18GStreamingCompiled9setSourceEOSt6vectorINS_7GRunArgESaIS2_EE.exit unwind label %20

_ZN2cv18GStreamingCompiled9setSourceEOSt6vectorINS_7GRunArgESaIS2_EE.exit: ; preds = %_ZNK2cv6detail19ExtractArgsCallbackclERKSt6vectorINS_9GTypeInfoESaIS3_EE.exit
  %12 = load ptr, ptr %3, align 8, !tbaa !52
  %13 = getelementptr inbounds nuw i8, ptr %3, i64 8
  %14 = load ptr, ptr %13, align 8, !tbaa !55
  invoke void @_ZNSt12_Destroy_auxILb0EE9__destroyIPN2cv7GRunArgEEEvT_S5_(ptr noundef %12, ptr noundef %14)
          to label %_ZSt8_DestroyIPN2cv7GRunArgES1_EvT_S3_RSaIT0_E.exit.i unwind label %17

_ZSt8_DestroyIPN2cv7GRunArgES1_EvT_S3_RSaIT0_E.exit.i: ; preds = %_ZN2cv18GStreamingCompiled9setSourceEOSt6vectorINS_7GRunArgESaIS2_EE.exit
  %15 = load ptr, ptr %3, align 8, !tbaa !52
  %.not.i.i.i3 = icmp eq ptr %15, null
  br i1 %.not.i.i.i3, label %_ZNSt6vectorIN2cv7GRunArgESaIS1_EED2Ev.exit, label %16

16:                                               ; preds = %_ZSt8_DestroyIPN2cv7GRunArgES1_EvT_S3_RSaIT0_E.exit.i
  call void @_ZdlPv(ptr noundef nonnull %15) #26
  br label %_ZNSt6vectorIN2cv7GRunArgESaIS1_EED2Ev.exit

17:                                               ; preds = %_ZN2cv18GStreamingCompiled9setSourceEOSt6vectorINS_7GRunArgESaIS2_EE.exit
  %18 = landingpad { ptr, i32 }
          catch ptr null
  %19 = extractvalue { ptr, i32 } %18, 0
  call void @__clang_call_terminate(ptr %19) #25
  unreachable

_ZNSt6vectorIN2cv7GRunArgESaIS1_EED2Ev.exit:      ; preds = %_ZSt8_DestroyIPN2cv7GRunArgES1_EvT_S3_RSaIT0_E.exit.i, %16
  call void @llvm.lifetime.end.p0(i64 24, ptr nonnull %3) #24
  ret void

20:                                               ; preds = %_ZNK2cv6detail19ExtractArgsCallbackclERKSt6vectorINS_9GTypeInfoESaIS3_EE.exit
  %21 = landingpad { ptr, i32 }
          cleanup
  call void @_ZNSt6vectorIN2cv7GRunArgESaIS1_EED2Ev(ptr noundef nonnull align 8 dereferenceable(24) %3) #24
  call void @llvm.lifetime.end.p0(i64 24, ptr nonnull %3) #24
  resume { ptr, i32 } %21
}